; Function Attrs: mustprogress uwtable
define dso_local noundef zeroext i1 @_ZNK4Luau6TxnLog8haveSeenEPKNS_11TypePackVarES3_(ptr nocapture noundef nonnull readonly align 8 dereferenceable(128) %0, ptr noundef %1, ptr noundef %2) local_unnamed_addr #3 align 2 {
  %4 = alloca %"struct.std::pair.67", align 8
  call void @llvm.lifetime.start.p0(i64 16, ptr nonnull %4)
  %5 = icmp ugt ptr %1, %2
  %spec.select.i = select i1 %5, ptr %1, ptr %2
  %spec.select10.i = select i1 %5, ptr %2, ptr %1
  store ptr %spec.select.i, ptr %4, align 8
  %6 = getelementptr inbounds i8, ptr %4, i64 8
  store ptr %spec.select10.i, ptr %6, align 8
  %7 = getelementptr inbounds i8, ptr %0, i64 120
  %8 = load ptr, ptr %7, align 8
  %9 = getelementptr inbounds i8, ptr %8, i64 8
  %10 = load ptr, ptr %9, align 8
  %11 = load ptr, ptr %8, align 8
  %12 = call ptr @_ZSt9__find_ifIN9__gnu_cxx17__normal_iteratorIPSt4pairIPKvS4_ESt6vectorIS5_SaIS5_EEEENS0_5__ops16_Iter_equals_valIKS5_EEET_SF_SF_T0_St26random_access_iterator_tag(ptr %11, ptr %10, ptr nonnull %4)
  %13 = icmp ne ptr %10, %12
  call void @llvm.lifetime.end.p0(i64 16, ptr nonnull %4)
  ret i1 %13
}